target datalayout = "e-m:e-p270:32:32-p271:32:32-p272:64:64-i64:64-i128:128-f80:128-n8:16:32:64-S128"
target triple = "x86_64-pc-linux-gnu"

%struct.Sym_Man_t_ = type { ptr, ptr, i32, i32, i32, ptr, ptr, ptr, ptr, ptr, ptr, ptr, ptr, ptr, ptr, ptr, ptr, ptr, i32, i32, i32, i32, i32, i32, i32, i32, i32, i32, i32, i32, i32, i64, i64, i64, i64, i64, i64, i64 }
%struct.Vec_Ptr_t_ = type { i32, i32, ptr }
%struct.Vec_Int_t_ = type { i32, i32, ptr }
%struct.Vec_Vec_t_ = type { i32, i32, ptr }

; Function Attrs: inlinehint nounwind uwtable
define internal ptr @Vec_VecEntry(ptr noundef %0, i32 noundef %1) #5 {
  %3 = alloca ptr, align 8
  %4 = alloca i32, align 4
  store ptr %0, ptr %3, align 8, !tbaa !63
  store i32 %1, ptr %4, align 4, !tbaa !8
  %5 = load ptr, ptr %3, align 8, !tbaa !63
  %6 = getelementptr inbounds nuw %struct.Vec_Vec_t_, ptr %5, i32 0, i32 2
  %7 = load ptr, ptr %6, align 8, !tbaa !64
  %8 = load i32, ptr %4, align 4, !tbaa !8
  %9 = sext i32 %8 to i64
  %10 = getelementptr inbounds ptr, ptr %7, i64 %9
  %11 = load ptr, ptr %10, align 8, !tbaa !31
  ret ptr %11
}

; Function Attrs: inlinehint nounwind uwtable
define internal i32 @Vec_VecSize(ptr noundef %0) #5 {
  %2 = alloca ptr, align 8
  store ptr %0, ptr %2, align 8, !tbaa !63
  %3 = load ptr, ptr %2, align 8, !tbaa !63
  %4 = getelementptr inbounds nuw %struct.Vec_Vec_t_, ptr %3, i32 0, i32 1
  %5 = load i32, ptr %4, align 4, !tbaa !67
  ret i32 %5
}

; Function Attrs: inlinehint nounwind uwtable
define internal void @Vec_IntFree(ptr noundef %0) #5 {
  %2 = alloca ptr, align 8
  store ptr %0, ptr %2, align 8, !tbaa !60
  %3 = load ptr, ptr %2, align 8, !tbaa !60
  %4 = getelementptr inbounds nuw %struct.Vec_Int_t_, ptr %3, i32 0, i32 2
  %5 = load ptr, ptr %4, align 8, !tbaa !62
  %6 = icmp ne ptr %5, null
  br i1 %6, label %7, label %13

7:                                                ; preds = %1
  %8 = load ptr, ptr %2, align 8, !tbaa !60
  %9 = getelementptr inbounds nuw %struct.Vec_Int_t_, ptr %8, i32 0, i32 2
  %10 = load ptr, ptr %9, align 8, !tbaa !62
  call void @free(ptr noundef %10) #10
  %11 = load ptr, ptr %2, align 8, !tbaa !60
  %12 = getelementptr inbounds nuw %struct.Vec_Int_t_, ptr %11, i32 0, i32 2
  store ptr null, ptr %12, align 8, !tbaa !62
  br label %14

13:                                               ; preds = %1
  br label %14

14:                                               ; preds = %13, %7
  %15 = load ptr, ptr %2, align 8, !tbaa !60
  %16 = icmp ne ptr %15, null
  br i1 %16, label %17, label %19

17:                                               ; preds = %14
  %18 = load ptr, ptr %2, align 8, !tbaa !60
  call void @free(ptr noundef %18) #10
  store ptr null, ptr %2, align 8, !tbaa !60
  br label %20

19:                                               ; preds = %14
  br label %20

20:                                               ; preds = %19, %17
  ret void
}

; Function Attrs: inlinehint nounwind uwtable
define internal void @Vec_VecFree(ptr noundef %0) #5 {
  %2 = alloca ptr, align 8
  %3 = alloca ptr, align 8
  %4 = alloca i32, align 4
  store ptr %0, ptr %2, align 8, !tbaa !63
  call void @llvm.lifetime.start.p0(i64 8, ptr %3) #10
  call void @llvm.lifetime.start.p0(i64 4, ptr %4) #10
  store i32 0, ptr %4, align 4, !tbaa !8
  br label %5

5:                                                ; preds = %22, %1
  %6 = load i32, ptr %4, align 4, !tbaa !8
  %7 = load ptr, ptr %2, align 8, !tbaa !63
  %8 = call i32 @Vec_VecSize(ptr noundef %7)
  %9 = icmp slt i32 %6, %8
  br i1 %9, label %10, label %14

10:                                               ; preds = %5
  %11 = load ptr, ptr %2, align 8, !tbaa !63
  %12 = load i32, ptr %4, align 4, !tbaa !8
  %13 = call ptr @Vec_VecEntry(ptr noundef %11, i32 noundef %12)
  store ptr %13, ptr %3, align 8, !tbaa !58
  br label %14

14:                                               ; preds = %10, %5
  %15 = phi i1 [ false, %5 ], [ true, %10 ]
  br i1 %15, label %16, label %25

16:                                               ; preds = %14
  %17 = load ptr, ptr %3, align 8, !tbaa !58
  %18 = icmp ne ptr %17, null
  br i1 %18, label %19, label %21

19:                                               ; preds = %16
  %20 = load ptr, ptr %3, align 8, !tbaa !58
  call void @Vec_PtrFree(ptr noundef %20)
  br label %21

21:                                               ; preds = %19, %16
  br label %22

22:                                               ; preds = %21
  %23 = load i32, ptr %4, align 4, !tbaa !8
  %24 = add nsw i32 %23, 1
  store i32 %24, ptr %4, align 4, !tbaa !8
  br label %5, !llvm.loop !83

25:                                               ; preds = %14
  %26 = load ptr, ptr %2, align 8, !tbaa !63
  call void @Vec_PtrFree(ptr noundef %26)
  call void @llvm.lifetime.end.p0(i64 4, ptr %4) #10
  call void @llvm.lifetime.end.p0(i64 8, ptr %3) #10
  ret void
}

; Function Attrs: inlinehint nounwind uwtable
define internal void @Vec_PtrFree(ptr noundef %0) #5 {
  %2 = alloca ptr, align 8
  store ptr %0, ptr %2, align 8, !tbaa !58
  %3 = load ptr, ptr %2, align 8, !tbaa !58
  %4 = getelementptr inbounds nuw %struct.Vec_Ptr_t_, ptr %3, i32 0, i32 2
  %5 = load ptr, ptr %4, align 8, !tbaa !29
  %6 = icmp ne ptr %5, null
  br i1 %6, label %7, label %13

7:                                                ; preds = %1
  %8 = load ptr, ptr %2, align 8, !tbaa !58
  %9 = getelementptr inbounds nuw %struct.Vec_Ptr_t_, ptr %8, i32 0, i32 2
  %10 = load ptr, ptr %9, align 8, !tbaa !29
  call void @free(ptr noundef %10) #10
  %11 = load ptr, ptr %2, align 8, !tbaa !58
  %12 = getelementptr inbounds nuw %struct.Vec_Ptr_t_, ptr %11, i32 0, i32 2
  store ptr null, ptr %12, align 8, !tbaa !29
  br label %14

13:                                               ; preds = %1
  br label %14

14:                                               ; preds = %13, %7
  %15 = load ptr, ptr %2, align 8, !tbaa !58
  %16 = icmp ne ptr %15, null
  br i1 %16, label %17, label %19

17:                                               ; preds = %14
  %18 = load ptr, ptr %2, align 8, !tbaa !58
  call void @free(ptr noundef %18) #10
  store ptr null, ptr %2, align 8, !tbaa !58
  br label %20

19:                                               ; preds = %14
  br label %20

20:                                               ; preds = %19, %17
  ret void
}

; Function Attrs: nounwind uwtable
define void @Sym_ManStop(ptr noundef %0) #0 {
  %2 = alloca ptr, align 8
  %3 = alloca i32, align 4
  store ptr %0, ptr %2, align 8, !tbaa !10
  call void @llvm.lifetime.start.p0(i64 4, ptr %3) #10
  %4 = load ptr, ptr %2, align 8, !tbaa !10
  call void @Sym_ManPrintStats(ptr noundef %4)
  %5 = load ptr, ptr %2, align 8, !tbaa !10
  %6 = getelementptr inbounds nuw %struct.Sym_Man_t_, ptr %5, i32 0, i32 6
  %7 = load ptr, ptr %6, align 8, !tbaa !39
  %8 = icmp ne ptr %7, null
  br i1 %8, label %9, label %13

9:                                                ; preds = %1
  %10 = load ptr, ptr %2, align 8, !tbaa !10
  %11 = getelementptr inbounds nuw %struct.Sym_Man_t_, ptr %10, i32 0, i32 6
  %12 = load ptr, ptr %11, align 8, !tbaa !39
  call void @Sim_UtilInfoFree(ptr noundef %12)
  br label %13

13:                                               ; preds = %9, %1
  %14 = load ptr, ptr %2, align 8, !tbaa !10
  %15 = getelementptr inbounds nuw %struct.Sym_Man_t_, ptr %14, i32 0, i32 5
  %16 = load ptr, ptr %15, align 8, !tbaa !23
  %17 = icmp ne ptr %16, null
  br i1 %17, label %18, label %22

18:                                               ; preds = %13
  %19 = load ptr, ptr %2, align 8, !tbaa !10
  %20 = getelementptr inbounds nuw %struct.Sym_Man_t_, ptr %19, i32 0, i32 5
  %21 = load ptr, ptr %20, align 8, !tbaa !23
  call void @Sim_UtilInfoFree(ptr noundef %21)
  br label %22

22:                                               ; preds = %18, %13
  %23 = load ptr, ptr %2, align 8, !tbaa !10
  %24 = getelementptr inbounds nuw %struct.Sym_Man_t_, ptr %23, i32 0, i32 1
  %25 = load ptr, ptr %24, align 8, !tbaa !19
  %26 = icmp ne ptr %25, null
  br i1 %26, label %27, label %31

27:                                               ; preds = %22
  %28 = load ptr, ptr %2, align 8, !tbaa !10
  %29 = getelementptr inbounds nuw %struct.Sym_Man_t_, ptr %28, i32 0, i32 1
  %30 = load ptr, ptr %29, align 8, !tbaa !19
  call void @Vec_PtrFree(ptr noundef %30)
  br label %31

31:                                               ; preds = %27, %22
  %32 = load ptr, ptr %2, align 8, !tbaa !10
  %33 = getelementptr inbounds nuw %struct.Sym_Man_t_, ptr %32, i32 0, i32 7
  %34 = load ptr, ptr %33, align 8, !tbaa !40
  %35 = icmp ne ptr %34, null
  br i1 %35, label %36, label %40

36:                                               ; preds = %31
  %37 = load ptr, ptr %2, align 8, !tbaa !10
  %38 = getelementptr inbounds nuw %struct.Sym_Man_t_, ptr %37, i32 0, i32 7
  %39 = load ptr, ptr %38, align 8, !tbaa !40
  call void @Vec_VecFree(ptr noundef %39)
  br label %40

40:                                               ; preds = %36, %31
  store i32 0, ptr %3, align 4, !tbaa !8
  br label %41

41:                                               ; preds = %66, %40
  %42 = load i32, ptr %3, align 4, !tbaa !8
  %43 = load ptr, ptr %2, align 8, !tbaa !10
  %44 = getelementptr inbounds nuw %struct.Sym_Man_t_, ptr %43, i32 0, i32 3
  %45 = load i32, ptr %44, align 4, !tbaa !21
  %46 = icmp slt i32 %42, %45
  br i1 %46, label %47, label %69

47:                                               ; preds = %41
  %48 = load ptr, ptr %2, align 8, !tbaa !10
  %49 = getelementptr inbounds nuw %struct.Sym_Man_t_, ptr %48, i32 0, i32 8
  %50 = load ptr, ptr %49, align 8, !tbaa !24
  %51 = getelementptr inbounds nuw %struct.Vec_Ptr_t_, ptr %50, i32 0, i32 2
  %52 = load ptr, ptr %51, align 8, !tbaa !29
  %53 = load i32, ptr %3, align 4, !tbaa !8
  %54 = sext i32 %53 to i64
  %55 = getelementptr inbounds ptr, ptr %52, i64 %54
  %56 = load ptr, ptr %55, align 8, !tbaa !31
  call void @Extra_BitMatrixStop(ptr noundef %56)
  %57 = load ptr, ptr %2, align 8, !tbaa !10
  %58 = getelementptr inbounds nuw %struct.Sym_Man_t_, ptr %57, i32 0, i32 9
  %59 = load ptr, ptr %58, align 8, !tbaa !25
  %60 = getelementptr inbounds nuw %struct.Vec_Ptr_t_, ptr %59, i32 0, i32 2
  %61 = load ptr, ptr %60, align 8, !tbaa !29
  %62 = load i32, ptr %3, align 4, !tbaa !8
  %63 = sext i32 %62 to i64
  %64 = getelementptr inbounds ptr, ptr %61, i64 %63
  %65 = load ptr, ptr %64, align 8, !tbaa !31
  call void @Extra_BitMatrixStop(ptr noundef %65)
  br label %66

66:                                               ; preds = %47
  %67 = load i32, ptr %3, align 4, !tbaa !8
  %68 = add nsw i32 %67, 1
  store i32 %68, ptr %3, align 4, !tbaa !8
  br label %41, !llvm.loop !69

69:                                               ; preds = %41
  %70 = load ptr, ptr %2, align 8, !tbaa !10
  %71 = getelementptr inbounds nuw %struct.Sym_Man_t_, ptr %70, i32 0, i32 16
  %72 = load ptr, ptr %71, align 8, !tbaa !37
  call void @Vec_IntFree(ptr noundef %72)
  %73 = load ptr, ptr %2, align 8, !tbaa !10
  %74 = getelementptr inbounds nuw %struct.Sym_Man_t_, ptr %73, i32 0, i32 17
  %75 = load ptr, ptr %74, align 8, !tbaa !38
  call void @Vec_IntFree(ptr noundef %75)
  %76 = load ptr, ptr %2, align 8, !tbaa !10
  %77 = getelementptr inbounds nuw %struct.Sym_Man_t_, ptr %76, i32 0, i32 8
  %78 = load ptr, ptr %77, align 8, !tbaa !24
  call void @Vec_PtrFree(ptr noundef %78)
  %79 = load ptr, ptr %2, align 8, !tbaa !10
  %80 = getelementptr inbounds nuw %struct.Sym_Man_t_, ptr %79, i32 0, i32 9
  %81 = load ptr, ptr %80, align 8, !tbaa !25
  call void @Vec_PtrFree(ptr noundef %81)
  %82 = load ptr, ptr %2, align 8, !tbaa !10
  %83 = getelementptr inbounds nuw %struct.Sym_Man_t_, ptr %82, i32 0, i32 10
  %84 = load ptr, ptr %83, align 8, !tbaa !26
  call void @Vec_IntFree(ptr noundef %84)
  %85 = load ptr, ptr %2, align 8, !tbaa !10
  %86 = getelementptr inbounds nuw %struct.Sym_Man_t_, ptr %85, i32 0, i32 11
  %87 = load ptr, ptr %86, align 8, !tbaa !27
  call void @Vec_IntFree(ptr noundef %87)
  %88 = load ptr, ptr %2, align 8, !tbaa !10
  %89 = getelementptr inbounds nuw %struct.Sym_Man_t_, ptr %88, i32 0, i32 12
  %90 = load ptr, ptr %89, align 8, !tbaa !28
  call void @Vec_IntFree(ptr noundef %90)
  %91 = load ptr, ptr %2, align 8, !tbaa !10
  %92 = getelementptr inbounds nuw %struct.Sym_Man_t_, ptr %91, i32 0, i32 13
  %93 = load ptr, ptr %92, align 8, !tbaa !34
  %94 = icmp ne ptr %93, null
  br i1 %94, label %95, label %101

95:                                               ; preds = %69
  %96 = load ptr, ptr %2, align 8, !tbaa !10
  %97 = getelementptr inbounds nuw %struct.Sym_Man_t_, ptr %96, i32 0, i32 13
  %98 = load ptr, ptr %97, align 8, !tbaa !34
  call void @free(ptr noundef %98) #10
  %99 = load ptr, ptr %2, align 8, !tbaa !10
  %100 = getelementptr inbounds nuw %struct.Sym_Man_t_, ptr %99, i32 0, i32 13
  store ptr null, ptr %100, align 8, !tbaa !34
  br label %102

101:                                              ; preds = %69
  br label %102

102:                                              ; preds = %101, %95
  %103 = load ptr, ptr %2, align 8, !tbaa !10
  %104 = getelementptr inbounds nuw %struct.Sym_Man_t_, ptr %103, i32 0, i32 14
  %105 = load ptr, ptr %104, align 8, !tbaa !35
  %106 = icmp ne ptr %105, null
  br i1 %106, label %107, label %113

107:                                              ; preds = %102
  %108 = load ptr, ptr %2, align 8, !tbaa !10
  %109 = getelementptr inbounds nuw %struct.Sym_Man_t_, ptr %108, i32 0, i32 14
  %110 = load ptr, ptr %109, align 8, !tbaa !35
  call void @free(ptr noundef %110) #10
  %111 = load ptr, ptr %2, align 8, !tbaa !10
  %112 = getelementptr inbounds nuw %struct.Sym_Man_t_, ptr %111, i32 0, i32 14
  store ptr null, ptr %112, align 8, !tbaa !35
  br label %114

113:                                              ; preds = %102
  br label %114

114:                                              ; preds = %113, %107
  %115 = load ptr, ptr %2, align 8, !tbaa !10
  %116 = getelementptr inbounds nuw %struct.Sym_Man_t_, ptr %115, i32 0, i32 15
  %117 = load ptr, ptr %116, align 8, !tbaa !36
  %118 = icmp ne ptr %117, null
  br i1 %118, label %119, label %125

119:                                              ; preds = %114
  %120 = load ptr, ptr %2, align 8, !tbaa !10
  %121 = getelementptr inbounds nuw %struct.Sym_Man_t_, ptr %120, i32 0, i32 15
  %122 = load ptr, ptr %121, align 8, !tbaa !36
  call void @free(ptr noundef %122) #10
  %123 = load ptr, ptr %2, align 8, !tbaa !10
  %124 = getelementptr inbounds nuw %struct.Sym_Man_t_, ptr %123, i32 0, i32 15
  store ptr null, ptr %124, align 8, !tbaa !36
  br label %126

125:                                              ; preds = %114
  br label %126

126:                                              ; preds = %125, %119
  %127 = load ptr, ptr %2, align 8, !tbaa !10
  %128 = icmp ne ptr %127, null
  br i1 %128, label %129, label %131

129:                                              ; preds = %126
  %130 = load ptr, ptr %2, align 8, !tbaa !10
  call void @free(ptr noundef %130) #10
  store ptr null, ptr %2, align 8, !tbaa !10
  br label %132

131:                                              ; preds = %126
  br label %132

132:                                              ; preds = %131, %129
  call void @llvm.lifetime.end.p0(i64 4, ptr %3) #10
  ret void
}