; Function Attrs: nounwind uwtable
define void @Sym_ManStop(ptr noundef captures(none) %0) local_unnamed_addr #0 {
  tail call void @Sym_ManPrintStats(ptr noundef %0)
  %2 = getelementptr inbounds nuw i8, ptr %0, i64 40
  %3 = load ptr, ptr %2, align 8, !tbaa !55
  %.not = icmp eq ptr %3, null
  br i1 %.not, label %5, label %4

4:                                                ; preds = %1
  tail call void @Sim_UtilInfoFree(ptr noundef nonnull %3) #12
  br label %5

5:                                                ; preds = %4, %1
  %6 = getelementptr inbounds nuw i8, ptr %0, i64 32
  %7 = load ptr, ptr %6, align 8, !tbaa !36
  %.not41 = icmp eq ptr %7, null
  br i1 %.not41, label %9, label %8

8:                                                ; preds = %5
  tail call void @Sim_UtilInfoFree(ptr noundef nonnull %7) #12
  br label %9

9:                                                ; preds = %8, %5
  %10 = getelementptr inbounds nuw i8, ptr %0, i64 8
  %11 = load ptr, ptr %10, align 8, !tbaa !15
  %.not42 = icmp eq ptr %11, null
  br i1 %.not42, label %16, label %12

12:                                               ; preds = %9
  %13 = getelementptr inbounds nuw i8, ptr %11, i64 8
  %14 = load ptr, ptr %13, align 8, !tbaa !38
  %.not.i = icmp eq ptr %14, null
  br i1 %.not.i, label %Vec_PtrFree.exit, label %15

15:                                               ; preds = %12
  tail call void @free(ptr noundef nonnull %14) #12
  br label %Vec_PtrFree.exit

Vec_PtrFree.exit:                                 ; preds = %12, %15
  tail call void @free(ptr noundef nonnull %11) #12
  br label %16

16:                                               ; preds = %Vec_PtrFree.exit, %9
  %17 = getelementptr inbounds nuw i8, ptr %0, i64 48
  %18 = load ptr, ptr %17, align 8, !tbaa !60
  %.not43 = icmp eq ptr %18, null
  br i1 %.not43, label %36, label %19

19:                                               ; preds = %16
  %20 = getelementptr i8, ptr %18, i64 4
  %.val11.i = load i32, ptr %20, align 4, !tbaa !59
  %21 = icmp sgt i32 %.val11.i, 0
  br i1 %21, label %.lr.ph.i, label %.critedge.i

.lr.ph.i:                                         ; preds = %19
  %22 = getelementptr i8, ptr %18, i64 8
  br label %23

23:                                               ; preds = %30, %.lr.ph.i
  %.val14.i = phi i32 [ %.val11.i, %.lr.ph.i ], [ %.val.i, %30 ]
  %indvars.iv.i = phi i64 [ 0, %.lr.ph.i ], [ %indvars.iv.next.i, %30 ]
  %.val8.i = load ptr, ptr %22, align 8, !tbaa !58
  %24 = getelementptr inbounds nuw ptr, ptr %.val8.i, i64 %indvars.iv.i
  %25 = load ptr, ptr %24, align 8, !tbaa !47
  %.not.i48 = icmp eq ptr %25, null
  br i1 %.not.i48, label %30, label %26

26:                                               ; preds = %23
  %27 = getelementptr inbounds nuw i8, ptr %25, i64 8
  %28 = load ptr, ptr %27, align 8, !tbaa !38
  %.not.i.i = icmp eq ptr %28, null
  br i1 %.not.i.i, label %Vec_PtrFree.exit.i, label %29

29:                                               ; preds = %26
  tail call void @free(ptr noundef nonnull %28) #12
  br label %Vec_PtrFree.exit.i

Vec_PtrFree.exit.i:                               ; preds = %29, %26
  tail call void @free(ptr noundef nonnull %25) #12
  %.val.pre.i = load i32, ptr %20, align 4, !tbaa !59
  br label %30

30:                                               ; preds = %Vec_PtrFree.exit.i, %23
  %.val.i = phi i32 [ %.val14.i, %23 ], [ %.val.pre.i, %Vec_PtrFree.exit.i ]
  %indvars.iv.next.i = add nuw nsw i64 %indvars.iv.i, 1
  %31 = sext i32 %.val.i to i64
  %32 = icmp slt i64 %indvars.iv.next.i, %31
  br i1 %32, label %23, label %.critedge.i, !llvm.loop !67

.critedge.i:                                      ; preds = %30, %19
  %33 = getelementptr inbounds nuw i8, ptr %18, i64 8
  %34 = load ptr, ptr %33, align 8, !tbaa !38
  %.not.i9.i = icmp eq ptr %34, null
  br i1 %.not.i9.i, label %Vec_VecFree.exit, label %35

35:                                               ; preds = %.critedge.i
  tail call void @free(ptr noundef nonnull %34) #12
  br label %Vec_VecFree.exit

Vec_VecFree.exit:                                 ; preds = %.critedge.i, %35
  tail call void @free(ptr noundef nonnull %18) #12
  br label %36

36:                                               ; preds = %Vec_VecFree.exit, %16
  %37 = getelementptr inbounds nuw i8, ptr %0, i64 20
  %38 = load i32, ptr %37, align 4, !tbaa !33
  %39 = icmp sgt i32 %38, 0
  br i1 %39, label %.lr.ph, label %._crit_edge

.lr.ph:                                           ; preds = %36
  %40 = getelementptr inbounds nuw i8, ptr %0, i64 56
  %41 = getelementptr inbounds nuw i8, ptr %0, i64 64
  br label %42

42:                                               ; preds = %.lr.ph, %42
  %indvars.iv = phi i64 [ 0, %.lr.ph ], [ %indvars.iv.next, %42 ]
  %43 = load ptr, ptr %40, align 8, !tbaa !39
  %44 = getelementptr inbounds nuw i8, ptr %43, i64 8
  %45 = load ptr, ptr %44, align 8, !tbaa !38
  %46 = getelementptr inbounds nuw ptr, ptr %45, i64 %indvars.iv
  %47 = load ptr, ptr %46, align 8, !tbaa !47
  tail call void @Extra_BitMatrixStop(ptr noundef %47) #12
  %48 = load ptr, ptr %41, align 8, !tbaa !40
  %49 = getelementptr inbounds nuw i8, ptr %48, i64 8
  %50 = load ptr, ptr %49, align 8, !tbaa !38
  %51 = getelementptr inbounds nuw ptr, ptr %50, i64 %indvars.iv
  %52 = load ptr, ptr %51, align 8, !tbaa !47
  tail call void @Extra_BitMatrixStop(ptr noundef %52) #12
  %indvars.iv.next = add nuw nsw i64 %indvars.iv, 1
  %53 = load i32, ptr %37, align 4, !tbaa !33
  %54 = sext i32 %53 to i64
  %55 = icmp slt i64 %indvars.iv.next, %54
  br i1 %55, label %42, label %._crit_edge, !llvm.loop !68

._crit_edge:                                      ; preds = %42, %36
  %56 = getelementptr inbounds nuw i8, ptr %0, i64 120
  %57 = load ptr, ptr %56, align 8, !tbaa !53
  %58 = getelementptr inbounds nuw i8, ptr %57, i64 8
  %59 = load ptr, ptr %58, align 8, !tbaa !42
  %.not.i49 = icmp eq ptr %59, null
  br i1 %.not.i49, label %Vec_IntFree.exit, label %60

60:                                               ; preds = %._crit_edge
  tail call void @free(ptr noundef nonnull %59) #12
  br label %Vec_IntFree.exit

Vec_IntFree.exit:                                 ; preds = %._crit_edge, %60
  tail call void @free(ptr noundef nonnull %57) #12
  %61 = getelementptr inbounds nuw i8, ptr %0, i64 128
  %62 = load ptr, ptr %61, align 8, !tbaa !54
  %63 = getelementptr inbounds nuw i8, ptr %62, i64 8
  %64 = load ptr, ptr %63, align 8, !tbaa !42
  %.not.i50 = icmp eq ptr %64, null
  br i1 %.not.i50, label %Vec_IntFree.exit51, label %65

65:                                               ; preds = %Vec_IntFree.exit
  tail call void @free(ptr noundef nonnull %64) #12
  br label %Vec_IntFree.exit51

Vec_IntFree.exit51:                               ; preds = %Vec_IntFree.exit, %65
  tail call void @free(ptr noundef nonnull %62) #12
  %66 = getelementptr inbounds nuw i8, ptr %0, i64 56
  %67 = load ptr, ptr %66, align 8, !tbaa !39
  %68 = getelementptr inbounds nuw i8, ptr %67, i64 8
  %69 = load ptr, ptr %68, align 8, !tbaa !38
  %.not.i52 = icmp eq ptr %69, null
  br i1 %.not.i52, label %Vec_PtrFree.exit53, label %70

70:                                               ; preds = %Vec_IntFree.exit51
  tail call void @free(ptr noundef nonnull %69) #12
  br label %Vec_PtrFree.exit53

Vec_PtrFree.exit53:                               ; preds = %Vec_IntFree.exit51, %70
  tail call void @free(ptr noundef nonnull %67) #12
  %71 = getelementptr inbounds nuw i8, ptr %0, i64 64
  %72 = load ptr, ptr %71, align 8, !tbaa !40
  %73 = getelementptr inbounds nuw i8, ptr %72, i64 8
  %74 = load ptr, ptr %73, align 8, !tbaa !38
  %.not.i54 = icmp eq ptr %74, null
  br i1 %.not.i54, label %Vec_PtrFree.exit55, label %75

75:                                               ; preds = %Vec_PtrFree.exit53
  tail call void @free(ptr noundef nonnull %74) #12
  br label %Vec_PtrFree.exit55

Vec_PtrFree.exit55:                               ; preds = %Vec_PtrFree.exit53, %75
  tail call void @free(ptr noundef nonnull %72) #12
  %76 = getelementptr inbounds nuw i8, ptr %0, i64 72
  %77 = load ptr, ptr %76, align 8, !tbaa !44
  %78 = getelementptr inbounds nuw i8, ptr %77, i64 8
  %79 = load ptr, ptr %78, align 8, !tbaa !42
  %.not.i56 = icmp eq ptr %79, null
  br i1 %.not.i56, label %Vec_IntFree.exit57, label %80

80:                                               ; preds = %Vec_PtrFree.exit55
  tail call void @free(ptr noundef nonnull %79) #12
  br label %Vec_IntFree.exit57

Vec_IntFree.exit57:                               ; preds = %Vec_PtrFree.exit55, %80
  tail call void @free(ptr noundef nonnull %77) #12
  %81 = getelementptr inbounds nuw i8, ptr %0, i64 80
  %82 = load ptr, ptr %81, align 8, !tbaa !45
  %83 = getelementptr inbounds nuw i8, ptr %82, i64 8
  %84 = load ptr, ptr %83, align 8, !tbaa !42
  %.not.i58 = icmp eq ptr %84, null
  br i1 %.not.i58, label %Vec_IntFree.exit59, label %85

85:                                               ; preds = %Vec_IntFree.exit57
  tail call void @free(ptr noundef nonnull %84) #12
  br label %Vec_IntFree.exit59

Vec_IntFree.exit59:                               ; preds = %Vec_IntFree.exit57, %85
  tail call void @free(ptr noundef nonnull %82) #12
  %86 = getelementptr inbounds nuw i8, ptr %0, i64 88
  %87 = load ptr, ptr %86, align 8, !tbaa !46
  %88 = getelementptr inbounds nuw i8, ptr %87, i64 8
  %89 = load ptr, ptr %88, align 8, !tbaa !42
  %.not.i60 = icmp eq ptr %89, null
  br i1 %.not.i60, label %Vec_IntFree.exit61, label %90

90:                                               ; preds = %Vec_IntFree.exit59
  tail call void @free(ptr noundef nonnull %89) #12
  br label %Vec_IntFree.exit61

Vec_IntFree.exit61:                               ; preds = %Vec_IntFree.exit59, %90
  tail call void @free(ptr noundef nonnull %87) #12
  %91 = getelementptr inbounds nuw i8, ptr %0, i64 96
  %92 = load ptr, ptr %91, align 8, !tbaa !50
  %.not44 = icmp eq ptr %92, null
  br i1 %.not44, label %94, label %93

93:                                               ; preds = %Vec_IntFree.exit61
  tail call void @free(ptr noundef nonnull %92) #12
  store ptr null, ptr %91, align 8, !tbaa !50
  br label %94

94:                                               ; preds = %Vec_IntFree.exit61, %93
  %95 = getelementptr inbounds nuw i8, ptr %0, i64 104
  %96 = load ptr, ptr %95, align 8, !tbaa !51
  %.not45 = icmp eq ptr %96, null
  br i1 %.not45, label %98, label %97

97:                                               ; preds = %94
  tail call void @free(ptr noundef nonnull %96) #12
  store ptr null, ptr %95, align 8, !tbaa !51
  br label %98

98:                                               ; preds = %94, %97
  %99 = getelementptr inbounds nuw i8, ptr %0, i64 112
  %100 = load ptr, ptr %99, align 8, !tbaa !52
  %.not46 = icmp eq ptr %100, null
  br i1 %.not46, label %102, label %101

101:                                              ; preds = %98
  tail call void @free(ptr noundef nonnull %100) #12
  br label %102

102:                                              ; preds = %98, %101
  tail call void @free(ptr noundef nonnull %0) #12
  ret void
}